; ModuleID = 'source-C-CXX/42/874.cpp'
source_filename = "source-C-CXX/42/874.cpp"
target datalayout = "e-m:e-p270:32:32-p271:32:32-p272:64:64-i64:64-f80:128-n8:16:32:64-S128"
target triple = "x86_64-pc-linux-gnu"

%"class.std::ios_base::Init" = type { i8 }
%"class.std::basic_istream" = type { i32 (...)**, i64, %"class.std::basic_ios" }
%"class.std::basic_ios" = type { %"class.std::ios_base", %"class.std::basic_ostream"*, i8, i8, %"class.std::basic_streambuf"*, %"class.std::ctype"*, %"class.std::num_put"*, %"class.std::num_get"* }
%"class.std::ios_base" = type { i32 (...)**, i64, i64, i32, i32, i32, %"struct.std::ios_base::_Callback_list"*, %"struct.std::ios_base::_Words", [8 x %"struct.std::ios_base::_Words"], i32, %"struct.std::ios_base::_Words"*, %"class.std::locale" }
%"struct.std::ios_base::_Callback_list" = type { %"struct.std::ios_base::_Callback_list"*, void (i32, %"class.std::ios_base"*, i32)*, i32, i32 }
%"struct.std::ios_base::_Words" = type { i8*, i64 }
%"class.std::locale" = type { %"class.std::locale::_Impl"* }
%"class.std::locale::_Impl" = type { i32, %"class.std::locale::facet"**, i64, %"class.std::locale::facet"**, i8** }
%"class.std::locale::facet" = type <{ i32 (...)**, i32, [4 x i8] }>
%"class.std::basic_ostream" = type { i32 (...)**, %"class.std::basic_ios" }
%"class.std::basic_streambuf" = type { i32 (...)**, i8*, i8*, i8*, i8*, i8*, i8*, %"class.std::locale" }
%"class.std::ctype" = type <{ %"class.std::locale::facet.base", [4 x i8], %struct.__locale_struct*, i8, [7 x i8], i32*, i32*, i16*, i8, [256 x i8], [256 x i8], i8, [6 x i8] }>
%"class.std::locale::facet.base" = type <{ i32 (...)**, i32 }>
%struct.__locale_struct = type { [13 x %struct.__locale_data*], i16*, i32*, i32*, [13 x i8*] }
%struct.__locale_data = type opaque
%"class.std::num_put" = type { %"class.std::locale::facet.base", [4 x i8] }
%"class.std::num_get" = type { %"class.std::locale::facet.base", [4 x i8] }

@_ZStL8__ioinit = internal global %"class.std::ios_base::Init" zeroinitializer, align 1
@__dso_handle = external hidden global i8
@_ZSt3cin = external global %"class.std::basic_istream", align 8
@_ZSt4cout = external global %"class.std::basic_ostream", align 8
@.str = private unnamed_addr constant [2 x i8] c" \00", align 1
@llvm.global_ctors = appending global [1 x { i32, void ()*, i8* }] [{ i32, void ()*, i8* } { i32 65535, void ()* @_GLOBAL__sub_I_874.cpp, i8* null }]

declare void @_ZNSt8ios_base4InitC1Ev(%"class.std::ios_base::Init"* nonnull align 1 dereferenceable(1)) unnamed_addr #0

; Function Attrs: nounwind
declare void @_ZNSt8ios_base4InitD1Ev(%"class.std::ios_base::Init"* nonnull align 1 dereferenceable(1)) unnamed_addr #1

; Function Attrs: nofree nounwind
declare i32 @__cxa_atexit(void (i8*)*, i8*, i8*) local_unnamed_addr #2

; Function Attrs: mustprogress norecurse sspstrong uwtable
define dso_local i32 @main() local_unnamed_addr #3 {
  %1 = alloca i32, align 4
  %2 = bitcast i32* %1 to i8*
  call void @llvm.lifetime.start.p0i8(i64 4, i8* nonnull %2) #7
  %3 = call nonnull align 8 dereferenceable(16) %"class.std::basic_istream"* @_ZNSirsERi(%"class.std::basic_istream"* nonnull align 8 dereferenceable(16) @_ZSt3cin, i32* nonnull align 4 dereferenceable(4) %1)
  %4 = load i32, i32* %1, align 4, !tbaa !5
  %5 = icmp slt i32 %4, 4
  br i1 %5, label %125, label %6

6:                                                ; preds = %0, %119
  %7 = phi i32 [ %124, %119 ], [ 0, %0 ]
  %8 = phi i32 [ %120, %119 ], [ %4, %0 ]
  %9 = phi i32 [ %121, %119 ], [ 2, %0 ]
  %10 = sub i32 -4, %7
  %11 = add i32 %7, 5
  %12 = icmp ugt i32 %9, 2
  br i1 %12, label %13, label %47

13:                                               ; preds = %6
  %14 = and i32 %7, 1
  %15 = icmp eq i32 %7, 1
  br i1 %15, label %34, label %16

16:                                               ; preds = %13
  %17 = and i32 %7, -2
  br label %18

18:                                               ; preds = %18, %16
  %19 = phi i32 [ 0, %16 ], [ %30, %18 ]
  %20 = phi i32 [ 2, %16 ], [ %31, %18 ]
  %21 = phi i32 [ %17, %16 ], [ %32, %18 ]
  %22 = urem i32 %9, %20
  %23 = icmp eq i32 %22, 0
  %24 = zext i1 %23 to i32
  %25 = add nuw nsw i32 %19, %24
  %26 = or i32 %20, 1
  %27 = urem i32 %9, %26
  %28 = icmp eq i32 %27, 0
  %29 = zext i1 %28 to i32
  %30 = add nuw nsw i32 %25, %29
  %31 = add nuw nsw i32 %20, 2
  %32 = add i32 %21, -2
  %33 = icmp eq i32 %32, 0
  br i1 %33, label %34, label %18, !llvm.loop !9

34:                                               ; preds = %18, %13
  %35 = phi i32 [ undef, %13 ], [ %30, %18 ]
  %36 = phi i32 [ 0, %13 ], [ %30, %18 ]
  %37 = phi i32 [ 2, %13 ], [ %31, %18 ]
  %38 = icmp eq i32 %14, 0
  br i1 %38, label %44, label %39

39:                                               ; preds = %34
  %40 = urem i32 %9, %37
  %41 = icmp eq i32 %40, 0
  %42 = zext i1 %41 to i32
  %43 = add nuw nsw i32 %36, %42
  br label %44

44:                                               ; preds = %34, %39
  %45 = phi i32 [ %35, %34 ], [ %43, %39 ]
  %46 = icmp eq i32 %45, 0
  br i1 %46, label %47, label %119

47:                                               ; preds = %6, %44
  %48 = sub nsw i32 %8, %9
  %49 = icmp sgt i32 %48, 2
  br i1 %49, label %50, label %85

50:                                               ; preds = %47
  %51 = add i32 %8, %10
  %52 = and i32 %51, 1
  %53 = icmp eq i32 %8, %11
  br i1 %53, label %72, label %54

54:                                               ; preds = %50
  %55 = and i32 %51, -2
  br label %56

56:                                               ; preds = %56, %54
  %57 = phi i32 [ 0, %54 ], [ %68, %56 ]
  %58 = phi i32 [ 2, %54 ], [ %69, %56 ]
  %59 = phi i32 [ %55, %54 ], [ %70, %56 ]
  %60 = srem i32 %48, %58
  %61 = icmp eq i32 %60, 0
  %62 = zext i1 %61 to i32
  %63 = add nuw nsw i32 %57, %62
  %64 = or i32 %58, 1
  %65 = srem i32 %48, %64
  %66 = icmp eq i32 %65, 0
  %67 = zext i1 %66 to i32
  %68 = add nuw nsw i32 %63, %67
  %69 = add nuw nsw i32 %58, 2
  %70 = add i32 %59, -2
  %71 = icmp eq i32 %70, 0
  br i1 %71, label %72, label %56, !llvm.loop !11

72:                                               ; preds = %56, %50
  %73 = phi i32 [ undef, %50 ], [ %68, %56 ]
  %74 = phi i32 [ 0, %50 ], [ %68, %56 ]
  %75 = phi i32 [ 2, %50 ], [ %69, %56 ]
  %76 = icmp eq i32 %52, 0
  br i1 %76, label %82, label %77

77:                                               ; preds = %72
  %78 = srem i32 %48, %75
  %79 = icmp eq i32 %78, 0
  %80 = zext i1 %79 to i32
  %81 = add nuw nsw i32 %74, %80
  br label %82

82:                                               ; preds = %72, %77
  %83 = phi i32 [ %73, %72 ], [ %81, %77 ]
  %84 = icmp eq i32 %83, 0
  br i1 %84, label %85, label %119

85:                                               ; preds = %47, %82
  %86 = call nonnull align 8 dereferenceable(8) %"class.std::basic_ostream"* @_ZNSolsEi(%"class.std::basic_ostream"* nonnull align 8 dereferenceable(8) @_ZSt4cout, i32 %9)
  %87 = call nonnull align 8 dereferenceable(8) %"class.std::basic_ostream"* @_ZSt16__ostream_insertIcSt11char_traitsIcEERSt13basic_ostreamIT_T0_ES6_PKS3_l(%"class.std::basic_ostream"* nonnull align 8 dereferenceable(8) %86, i8* nonnull getelementptr inbounds ([2 x i8], [2 x i8]* @.str, i64 0, i64 0), i64 1)
  %88 = call nonnull align 8 dereferenceable(8) %"class.std::basic_ostream"* @_ZNSolsEi(%"class.std::basic_ostream"* nonnull align 8 dereferenceable(8) %86, i32 %48)
  %89 = bitcast %"class.std::basic_ostream"* %88 to i8**
  %90 = load i8*, i8** %89, align 8, !tbaa !12
  %91 = getelementptr i8, i8* %90, i64 -24
  %92 = bitcast i8* %91 to i64*
  %93 = load i64, i64* %92, align 8
  %94 = bitcast %"class.std::basic_ostream"* %88 to i8*
  %95 = add nsw i64 %93, 240
  %96 = getelementptr inbounds i8, i8* %94, i64 %95
  %97 = bitcast i8* %96 to %"class.std::ctype"**
  %98 = load %"class.std::ctype"*, %"class.std::ctype"** %97, align 8, !tbaa !14
  %99 = icmp eq %"class.std::ctype"* %98, null
  br i1 %99, label %100, label %101

100:                                              ; preds = %85
  call void @_ZSt16__throw_bad_castv() #8
  unreachable

101:                                              ; preds = %85
  %102 = getelementptr inbounds %"class.std::ctype", %"class.std::ctype"* %98, i64 0, i32 8
  %103 = load i8, i8* %102, align 8, !tbaa !18
  %104 = icmp eq i8 %103, 0
  br i1 %104, label %108, label %105

105:                                              ; preds = %101
  %106 = getelementptr inbounds %"class.std::ctype", %"class.std::ctype"* %98, i64 0, i32 9, i64 10
  %107 = load i8, i8* %106, align 1, !tbaa !20
  br label %114

108:                                              ; preds = %101
  call void @_ZNKSt5ctypeIcE13_M_widen_initEv(%"class.std::ctype"* nonnull align 8 dereferenceable(570) %98)
  %109 = bitcast %"class.std::ctype"* %98 to i8 (%"class.std::ctype"*, i8)***
  %110 = load i8 (%"class.std::ctype"*, i8)**, i8 (%"class.std::ctype"*, i8)*** %109, align 8, !tbaa !12
  %111 = getelementptr inbounds i8 (%"class.std::ctype"*, i8)*, i8 (%"class.std::ctype"*, i8)** %110, i64 6
  %112 = load i8 (%"class.std::ctype"*, i8)*, i8 (%"class.std::ctype"*, i8)** %111, align 8
  %113 = call signext i8 %112(%"class.std::ctype"* nonnull align 8 dereferenceable(570) %98, i8 signext 10)
  br label %114

114:                                              ; preds = %105, %108
  %115 = phi i8 [ %107, %105 ], [ %113, %108 ]
  %116 = call nonnull align 8 dereferenceable(8) %"class.std::basic_ostream"* @_ZNSo3putEc(%"class.std::basic_ostream"* nonnull align 8 dereferenceable(8) %88, i8 signext %115)
  %117 = call nonnull align 8 dereferenceable(8) %"class.std::basic_ostream"* @_ZNSo5flushEv(%"class.std::basic_ostream"* nonnull align 8 dereferenceable(8) %116)
  %118 = load i32, i32* %1, align 4, !tbaa !5
  br label %119

119:                                              ; preds = %44, %82, %114
  %120 = phi i32 [ %8, %44 ], [ %8, %82 ], [ %118, %114 ]
  %121 = add nuw nsw i32 %9, 1
  %122 = sdiv i32 %120, 2
  %123 = icmp slt i32 %9, %122
  %124 = add i32 %7, 1
  br i1 %123, label %6, label %125, !llvm.loop !21

125:                                              ; preds = %119, %0
  call void @llvm.lifetime.end.p0i8(i64 4, i8* nonnull %2) #7
  ret i32 0
}

; Function Attrs: argmemonly mustprogress nofree nosync nounwind willreturn
declare void @llvm.lifetime.start.p0i8(i64 immarg, i8* nocapture) #4

declare nonnull align 8 dereferenceable(16) %"class.std::basic_istream"* @_ZNSirsERi(%"class.std::basic_istream"* nonnull align 8 dereferenceable(16), i32* nonnull align 4 dereferenceable(4)) local_unnamed_addr #0

declare nonnull align 8 dereferenceable(8) %"class.std::basic_ostream"* @_ZNSolsEi(%"class.std::basic_ostream"* nonnull align 8 dereferenceable(8), i32) local_unnamed_addr #0

; Function Attrs: argmemonly mustprogress nofree nosync nounwind willreturn
declare void @llvm.lifetime.end.p0i8(i64 immarg, i8* nocapture) #4

declare nonnull align 8 dereferenceable(8) %"class.std::basic_ostream"* @_ZSt16__ostream_insertIcSt11char_traitsIcEERSt13basic_ostreamIT_T0_ES6_PKS3_l(%"class.std::basic_ostream"* nonnull align 8 dereferenceable(8), i8*, i64) local_unnamed_addr #0

declare nonnull align 8 dereferenceable(8) %"class.std::basic_ostream"* @_ZNSo3putEc(%"class.std::basic_ostream"* nonnull align 8 dereferenceable(8), i8 signext) local_unnamed_addr #0

declare nonnull align 8 dereferenceable(8) %"class.std::basic_ostream"* @_ZNSo5flushEv(%"class.std::basic_ostream"* nonnull align 8 dereferenceable(8)) local_unnamed_addr #0

; Function Attrs: noreturn
declare void @_ZSt16__throw_bad_castv() local_unnamed_addr #5

declare void @_ZNKSt5ctypeIcE13_M_widen_initEv(%"class.std::ctype"* nonnull align 8 dereferenceable(570)) local_unnamed_addr #0

; Function Attrs: sspstrong uwtable
define internal void @_GLOBAL__sub_I_874.cpp() #6 section ".text.startup" {
  tail call void @_ZNSt8ios_base4InitC1Ev(%"class.std::ios_base::Init"* nonnull align 1 dereferenceable(1) @_ZStL8__ioinit)
  %1 = tail call i32 @__cxa_atexit(void (i8*)* bitcast (void (%"class.std::ios_base::Init"*)* @_ZNSt8ios_base4InitD1Ev to void (i8*)*), i8* getelementptr inbounds (%"class.std::ios_base::Init", %"class.std::ios_base::Init"* @_ZStL8__ioinit, i64 0, i32 0), i8* nonnull @__dso_handle) #7
  ret void
}


!llvm.module.flags = !{!0, !1, !2, !3}
!llvm.ident = !{!4}

!0 = !{i32 1, !"wchar_size", i32 4}
!1 = !{i32 7, !"PIC Level", i32 2}
!2 = !{i32 7, !"PIE Level", i32 2}
!3 = !{i32 7, !"uwtable", i32 1}
!4 = !{!"clang version 13.0.0"}
!5 = !{!6, !6, i64 0}
!6 = !{!"int", !7, i64 0}
!7 = !{!"omnipotent char", !8, i64 0}
!8 = !{!"Simple C++ TBAA"}
!9 = distinct !{!9, !10}
!10 = !{!"llvm.loop.mustprogress"}
!11 = distinct !{!11, !10}
!12 = !{!13, !13, i64 0}
!13 = !{!"vtable pointer", !8, i64 0}
!14 = !{!15, !16, i64 240}
!15 = !{!"_ZTSSt9basic_iosIcSt11char_traitsIcEE", !16, i64 216, !7, i64 224, !17, i64 225, !16, i64 232, !16, i64 240, !16, i64 248, !16, i64 256}
!16 = !{!"any pointer", !7, i64 0}
!17 = !{!"bool", !7, i64 0}
!18 = !{!19, !7, i64 56}
!19 = !{!"_ZTSSt5ctypeIcE", !16, i64 16, !17, i64 24, !16, i64 32, !16, i64 40, !16, i64 48, !7, i64 56, !7, i64 57, !7, i64 313, !7, i64 569}
!20 = !{!7, !7, i64 0}
!21 = distinct !{!21, !10}
